target datalayout = "e-m:e-p270:32:32-p271:32:32-p272:64:64-i64:64-i128:128-f80:128-n8:16:32:64-S128"
target triple = "x86_64-pc-linux-gnu"

%struct.s_p_values = type { ptr, i32, i32, i32, ptr, ptr, ptr, ptr }

; Function Attrs: nounwind uwtable
define dso_local i32 @s_p_get_uint16(ptr noundef %0, ptr noundef %1, ptr noundef %2) #0 {
  %4 = alloca i32, align 4
  %5 = alloca ptr, align 8
  %6 = alloca ptr, align 8
  %7 = alloca ptr, align 8
  %8 = alloca ptr, align 8
  %9 = alloca i32, align 4
  store ptr %0, ptr %5, align 8
  store ptr %1, ptr %6, align 8
  store ptr %2, ptr %7, align 8
  call void @llvm.lifetime.start.p0(i64 8, ptr %8) #9
  %10 = load ptr, ptr %6, align 8
  %11 = load ptr, ptr %7, align 8
  %12 = call ptr @_get_check(i32 noundef 3, ptr noundef %10, ptr noundef %11)
  store ptr %12, ptr %8, align 8
  %13 = load ptr, ptr %8, align 8
  %14 = icmp ne ptr %13, null
  br i1 %14, label %15, label %21

15:                                               ; preds = %3
  %16 = load ptr, ptr %8, align 8
  %17 = getelementptr inbounds nuw %struct.s_p_values, ptr %16, i32 0, i32 4
  %18 = load ptr, ptr %17, align 8
  %19 = load i16, ptr %18, align 2
  %20 = load ptr, ptr %5, align 8
  store i16 %19, ptr %20, align 2
  store i32 1, ptr %4, align 4
  store i32 1, ptr %9, align 4
  br label %22

21:                                               ; preds = %3
  store i32 0, ptr %4, align 4
  store i32 1, ptr %9, align 4
  br label %22

22:                                               ; preds = %21, %15
  call void @llvm.lifetime.end.p0(i64 8, ptr %8) #9
  %23 = load i32, ptr %4, align 4
  ret i32 %23
}